; Function Attrs: nounwind uwtable
define internal range(i32 -1, 1) i32 @H5VL__free_cls(ptr noundef %0, ptr nocapture readnone %1) #0 {
  %3 = getelementptr inbounds i8, ptr %0, i64 40
  %4 = load ptr, ptr %3, align 8
  %.not = icmp eq ptr %4, null
  br i1 %.not, label %12, label %5

5:                                                ; preds = %2
  %6 = tail call i32 %4() #10
  %7 = icmp slt i32 %6, 0
  br i1 %7, label %8, label %12

8:                                                ; preds = %5
  %9 = load i64, ptr @H5E_VOL_g, align 8
  %10 = load i64, ptr @H5E_CANTCLOSEOBJ_g, align 8
  %11 = tail call i32 (ptr, ptr, i32, i64, i64, ptr, ...) @H5E_printf_stack(ptr noundef nonnull @.str.2, ptr noundef nonnull @__func__.H5VL__free_cls, i32 noundef 289, i64 noundef %9, i64 noundef %10, ptr noundef nonnull @.str.103) #10
  br label %17

12:                                               ; preds = %5, %2
  %13 = getelementptr inbounds i8, ptr %0, i64 8
  %14 = load ptr, ptr %13, align 8
  %15 = tail call ptr @H5MM_xfree_const(ptr noundef %14) #10
  %16 = tail call ptr @H5FL_reg_free(ptr noundef nonnull @H5_H5VL_class_t_reg_free_list, ptr noundef nonnull %0) #10
  br label %17

17:                                               ; preds = %12, %8
  %.0 = phi i32 [ -1, %8 ], [ 0, %12 ]
  ret i32 %.0
}